; Function Attrs: nounwind uwtable
define dso_local noundef i64 @pg_get_userbyid(ptr noundef readonly captures(none) %0) local_unnamed_addr #0 {
  %2 = getelementptr inbounds nuw i8, ptr %0, i64 32
  %3 = load i64, ptr %2, align 8
  %4 = tail call ptr @palloc(i64 noundef 64) #11
  tail call void @llvm.memset.p0.i64(ptr noundef nonnull align 1 dereferenceable(64) %4, i8 0, i64 64, i1 false)
  %5 = and i64 %3, 4294967295
  %6 = tail call ptr @SearchSysCache1(i32 noundef 11, i64 noundef %5) #11
  %.not = icmp eq ptr %6, null
  br i1 %.not, label %14, label %7

7:                                                ; preds = %1
  %8 = getelementptr i8, ptr %6, i64 16
  %.val = load ptr, ptr %8, align 8
  %9 = getelementptr inbounds nuw i8, ptr %.val, i64 22
  %10 = load i8, ptr %9, align 2
  %11 = zext i8 %10 to i64
  %12 = getelementptr inbounds nuw i8, ptr %.val, i64 %11
  %13 = getelementptr inbounds nuw i8, ptr %12, i64 4
  tail call void @llvm.memcpy.p0.p0.i64(ptr noundef nonnull align 1 dereferenceable(64) %4, ptr noundef nonnull align 4 dereferenceable(64) %13, i64 64, i1 false)
  tail call void @ReleaseSysCache(ptr noundef nonnull %6) #11
  br label %17

14:                                               ; preds = %1
  %15 = trunc i64 %3 to i32
  %16 = tail call i32 (ptr, ptr, ...) @pg_sprintf(ptr noundef nonnull %4, ptr noundef nonnull @.str, i32 noundef %15) #11
  br label %17

17:                                               ; preds = %14, %7
  %18 = ptrtoint ptr %4 to i64
  ret i64 %18
}